(dp0
(S'128x64'
p1
F0.01
F0.01
F0.8
I4
tp2
cnumpy.core.multiarray
scalar
p3
(cnumpy
dtype
p4
(S'f4'
p5
I0
I1
tp6
Rp7
(I3
S'<'
p8
NNNI-1
I-1
I0
tp9
bS'\x80Q\x01A'
p10
tp11
Rp12
s(S'128x64'
p13
F0.01
F0.01
F0.9
I4
tp14
g3
(g7
S'^\xbb\x00A'
p15
tp16
Rp17
s(S'128x64'
p18
F0.1
F0.05
F0.9
I1
tp19
g3
(g7
S'\xde7\x1bA'
p20
tp21
Rp22
s(S'128x64'
p23
F0.01
F0.05
F0.9
I0
tp24
g3
(g7
S'\x84C\x11A'
p25
tp26
Rp27
s(S'128x64'
p28
F0.1
F0.05
F0.8
I4
tp29
g3
(g7
S'zO\x1bA'
p30
tp31
Rp32
s(S'128x64'
p33
F0.01
F0.01
F0.9
I1
tp34
g3
(g7
S'\xa19\x00A'
p35
tp36
Rp37
s(S'128x64'
p38
F0.1
F0.01
F0.9
I0
tp39
g3
(g7
S'\xc1I\x1bA'
p40
tp41
Rp42
s(S'128x64'
p43
F0.1
F0.05
F0.9
I3
tp44
g3
(g7
S'(\x17\x1bA'
p45
tp46
Rp47
s(S'128x64'
p48
F0.01
F0.05
F0.9
I2
tp49
g3
(g7
S'vD\x10A'
p50
tp51
Rp52
s(S'128x64'
p53
F0.1
F0.01
F0.8
I3
tp54
g3
(g7
S'\x0c@\x1bA'
p55
tp56
Rp57
s(S'128x64'
p58
F0.01
F0.05
F0.8
I0
tp59
g3
(g7
S';\xde\x10A'
p60
tp61
Rp62
s(S'128x64'
p63
F0.01
F0.01
F0.8
I1
tp64
g3
(g7
S'@\xf3\x00A'
p65
tp66
Rp67
s(S'128x64'
p68
F0.01
F0.01
F0.9
I3
tp69
g3
(g7
S'\xc5\x90\xf8@'
p70
tp71
Rp72
s(S'128x64'
p73
F0.1
F0.01
F0.9
I2
tp74
g3
(g7
S'\xa0?\x1bA'
p75
tp76
Rp77
s(S'128x64'
p78
F0.01
F0.05
F0.9
I4
tp79
g3
(g7
S'[\x8a\x0eA'
p80
tp81
Rp82
s(S'128x64'
p83
F0.1
F0.01
F0.8
I1
tp84
g3
(g7
S'\x17\xaf\x1bA'
p85
tp86
Rp87
s(S'128x64'
p88
F0.1
F0.05
F0.8
I1
tp89
g3
(g7
S'\xdf\x14\x1bA'
p90
tp91
Rp92
s(S'128x64'
p93
F0.01
F0.05
F0.8
I2
tp94
g3
(g7
S'\x87t\x15A'
p95
tp96
Rp97
s(S'128x64'
p98
F0.01
F0.01
F0.8
I3
tp99
g3
(g7
S'\xf1b\x00A'
p100
tp101
Rp102
s(S'128x64'
p103
F0.1
F0.01
F0.8
I4
tp104
g3
(g7
S'\xf24\x1bA'
p105
tp106
Rp107
s(S'128x64'
p108
F0.1
F0.01
F0.9
I4
tp109
g3
(g7
S'\xb8O\x1bA'
p110
tp111
Rp112
s(S'128x64'
p113
F0.01
F0.05
F0.9
I1
tp114
g3
(g7
S'\xc2#\x13A'
p115
tp116
Rp117
s(S'128x64'
p118
F0.1
F0.05
F0.8
I3
tp119
g3
(g7
S'oj\x1bA'
p120
tp121
Rp122
s(S'128x64'
p123
F0.01
F0.05
F0.8
I4
tp124
g3
(g7
S'lk\x10A'
p125
tp126
Rp127
s(S'128x64'
p128
F0.1
F0.01
F0.9
I1
tp129
g3
(g7
S'@"\x1bA'
p130
tp131
Rp132
s(S'128x64'
p133
F0.1
F0.05
F0.9
I0
tp134
g3
(g7
S'>\x1a\x1bA'
p135
tp136
Rp137
s(S'128x64'
p138
F0.01
F0.05
F0.9
I3
tp139
g3
(g7
S'\xe8\xc1\x10A'
p140
tp141
Rp142
s(S'128x64'
p143
F0.01
F0.01
F0.8
I0
tp144
g3
(g7
S'\xe0\xd7\x01A'
p145
tp146
Rp147
s(S'128x64'
p148
F0.01
F0.01
F0.9
I0
tp149
g3
(g7
S'\xae\xaf\xfd@'
p150
tp151
Rp152
s(S'128x64'
p153
F0.1
F0.01
F0.9
I3
tp154
g3
(g7
S'\xf5\x19\x1bA'
p155
tp156
Rp157
s(S'128x64'
p158
F0.1
F0.05
F0.9
I2
tp159
g3
(g7
S"'\x17\x1bA"
p160
tp161
Rp162
s(S'128x64'
p163
F0.1
F0.01
F0.8
I2
tp164
g3
(g7
S'I\x17\x1bA'
p165
tp166
Rp167
s(S'128x64'
p168
F0.1
F0.05
F0.8
I0
tp169
g3
(g7
S'n*\x1bA'
p170
tp171
Rp172
s(S'128x64'
p173
F0.01
F0.05
F0.8
I1
tp174
g3
(g7
S'\x9c\xf7\x10A'
p175
tp176
Rp177
s(S'128x64'
p178
F0.01
F0.01
F0.8
I2
tp179
g3
(g7
S'T=\x07A'
p180
tp181
Rp182
s(S'128x64'
p183
F0.01
F0.01
F0.9
I2
tp184
g3
(g7
S'FT\x00A'
p185
tp186
Rp187
s(S'128x64'
p188
F0.1
F0.05
F0.9
I4
tp189
g3
(g7
S'\xf7\x13\x1bA'
p190
tp191
Rp192
s(S'128x64'
p193
F0.1
F0.01
F0.8
I0
tp194
g3
(g7
S'\xa2I\x1bA'
p195
tp196
Rp197
s(S'128x64'
p198
F0.1
F0.05
F0.8
I2
tp199
g3
(g7
S'\x95\x18\x1bA'
p200
tp201
Rp202
s(S'128x64'
p203
F0.01
F0.05
F0.8
I3
tp204
g3
(g7
S'=\xf8\x11A'
p205
tp206
Rp207
s.