(dp0
(S'128x64'
p1
F0.001
F0.0
F1.0
I2
tp2
cnumpy.core.multiarray
scalar
p3
(cnumpy
dtype
p4
(S'f4'
p5
I0
I1
tp6
Rp7
(I3
S'<'
p8
NNNI-1
I-1
I0
tp9
bS'Y\x88\x02A'
p10
tp11
Rp12
s(S'128x64'
p13
F0.001
F0.0
F1.0
I3
tp14
g3
(g7
S'O\xab\x01A'
p15
tp16
Rp17
s(S'128x64'
p18
F0.001
F0.0
F1.0
I0
tp19
g3
(g7
S'\xbf\xb4\x07A'
p20
tp21
Rp22
s(S'128x64'
p23
F0.001
F0.0
F1.0
I1
tp24
g3
(g7
S'\x12b\x03A'
p25
tp26
Rp27
s(S'128x64'
p28
F0.001
F0.0
F1.0
I4
tp29
g3
(g7
S'\xfd\xc5\x01A'
p30
tp31
Rp32
s.