(dp0
(S'128x64'
p1
F0.001
F0.01
F0.9
I4
tp2
cnumpy.core.multiarray
scalar
p3
(cnumpy
dtype
p4
(S'f4'
p5
I0
I1
tp6
Rp7
(I3
S'<'
p8
NNNI-1
I-1
I0
tp9
bS'2\xcc\xe0@'
p10
tp11
Rp12
s(S'128x64'
p13
F0.001
F0.01
F0.9
I2
tp14
g3
(g7
S'^l\xe5@'
p15
tp16
Rp17
s(S'128x64'
p18
F0.001
F0.01
F0.9
I3
tp19
g3
(g7
S'\xa0\x8e\xe9@'
p20
tp21
Rp22
s(S'128x64'
p23
F0.001
F0.01
F0.9
I0
tp24
g3
(g7
S'\xe2\xbd\xe3@'
p25
tp26
Rp27
s(S'128x64'
p28
F0.001
F0.01
F0.9
I1
tp29
g3
(g7
S'\xf8\xfd\xe8@'
p30
tp31
Rp32
s.