(dp0
(S'64x32'
p1
F0.1
F0.05
F0.8
I1
tp2
cnumpy.core.multiarray
scalar
p3
(cnumpy
dtype
p4
(S'f4'
p5
I0
I1
tp6
Rp7
(I3
S'<'
p8
NNNI-1
I-1
I0
tp9
bS'[9\x1bA'
p10
tp11
Rp12
s(S'64x32'
p13
F0.1
F0.01
F0.9
I1
tp14
g3
(g7
S'=\xa1\x14A'
p15
tp16
Rp17
s(S'64x32'
p18
F0.01
F0.05
F0.8
I2
tp19
g3
(g7
S'\x11!\x13A'
p20
tp21
Rp22
s(S'64x32'
p23
F0.1
F0.01
F0.8
I3
tp24
g3
(g7
S'!q\x15A'
p25
tp26
Rp27
s(S'128x32'
p28
F0.001
F0.0
F1.0
I4
tp29
F7.7447333
s(g28
F0.001
F0.0
F1.0
I3
tp30
F7.7445564
s(S'64x32'
p31
F0.01
F0.01
F0.9
I0
tp32
g3
(g7
S'\x93?\x04A'
p33
tp34
Rp35
s(S'64x32'
p36
F0.01
F0.05
F0.9
I1
tp37
g3
(g7
S'\x11\xfe\x10A'
p38
tp39
Rp40
s(S'64x32'
p41
F0.1
F0.05
F0.8
I3
tp42
g3
(g7
S'\x02\x17\x1bA'
p43
tp44
Rp45
s(S'64x32'
p46
F0.1
F0.01
F0.9
I3
tp47
g3
(g7
S'\xc8\xef\x18A'
p48
tp49
Rp50
s(S'64x32'
p51
F0.1
F0.01
F0.9
I4
tp52
g3
(g7
S'\x85S\x13A'
p53
tp54
Rp55
s(S'64x32'
p56
F0.01
F0.01
F0.8
I0
tp57
g3
(g7
S'\xf7W\x04A'
p58
tp59
Rp60
s(S'64x32'
p61
F0.1
F0.01
F0.8
I4
tp62
g3
(g7
S'\xf4\x16\x1bA'
p63
tp64
Rp65
s(g28
F0.001
F0.0
F1.0
I1
tp66
F7.7403231
s(S'64x32'
p67
F0.1
F0.05
F0.9
I0
tp68
g3
(g7
S'a\xf2\x18A'
p69
tp70
Rp71
s(S'64x32'
p72
F0.01
F0.01
F0.9
I2
tp73
g3
(g7
S'\x11\xf1\x03A'
p74
tp75
Rp76
s(S'64x32'
p77
F0.01
F0.05
F0.9
I3
tp78
g3
(g7
S'\x19\xce\x12A'
p79
tp80
Rp81
s(S'64x32'
p82
F0.01
F0.05
F0.9
I4
tp83
g3
(g7
S't\x00\x12A'
p84
tp85
Rp86
s(S'64x32'
p87
F0.1
F0.05
F0.8
I4
tp88
g3
(g7
S'\x814\x1bA'
p89
tp90
Rp91
s(S'64x32'
p92
F0.01
F0.05
F0.8
I1
tp93
g3
(g7
S'\xd0\xc3\x11A'
p94
tp95
Rp96
s(S'64x32'
p97
F0.01
F0.01
F0.8
I2
tp98
g3
(g7
S'3\xf9\x05A'
p99
tp100
Rp101
s(S'64x32'
p102
F0.1
F0.05
F0.9
I2
tp103
g3
(g7
S'B\x17\x1bA'
p104
tp105
Rp106
s(S'64x32'
p107
F0.1
F0.01
F0.9
I0
tp108
g3
(g7
S'/\xff\x14A'
p109
tp110
Rp111
s(S'64x32'
p112
F0.01
F0.05
F0.8
I3
tp113
g3
(g7
S'F\xb7\x12A'
p114
tp115
Rp116
s(S'64x32'
p117
F0.1
F0.01
F0.8
I0
tp118
g3
(g7
S'.A\x1bA'
p119
tp120
Rp121
s(S'64x32'
p122
F0.01
F0.05
F0.9
I0
tp123
g3
(g7
S'uM\x11A'
p124
tp125
Rp126
s(S'64x32'
p127
F0.1
F0.05
F0.8
I0
tp128
g3
(g7
S'\x98@\x1bA'
p129
tp130
Rp131
s(S'64x32'
p132
F0.1
F0.01
F0.9
I2
tp133
g3
(g7
S'-[\x16A'
p134
tp135
Rp136
s(S'64x32'
p137
F0.01
F0.05
F0.8
I4
tp138
g3
(g7
S'V\x85\x12A'
p139
tp140
Rp141
s(S'64x32'
p142
F0.01
F0.01
F0.8
I1
tp143
g3
(g7
S'\xd6\x90\x04A'
p144
tp145
Rp146
s(S'64x32'
p147
F0.1
F0.01
F0.8
I2
tp148
g3
(g7
S'k\x0f\x1bA'
p149
tp150
Rp151
s(g28
F0.001
F0.0
F1.0
I2
tp152
F7.7205057
s(S'64x32'
p153
F0.01
F0.01
F0.9
I1
tp154
g3
(g7
S'\xa1\xd0\x04A'
p155
tp156
Rp157
s(S'64x32'
p158
F0.01
F0.05
F0.9
I2
tp159
g3
(g7
S'\\\x9e\x11A'
p160
tp161
Rp162
s(S'64x32'
p163
F0.1
F0.05
F0.8
I2
tp164
g3
(g7
S'\xe6\x1b\x1bA'
p165
tp166
Rp167
s(S'64x32'
p168
F0.01
F0.01
F0.8
I3
tp169
g3
(g7
S'\xf0?\x03A'
p170
tp171
Rp172
s(g28
F0.001
F0.0
F1.0
I0
tp173
F7.8202262
s(S'64x32'
p174
F0.1
F0.05
F0.9
I1
tp175
g3
(g7
S';\xaf\x18A'
p176
tp177
Rp178
s(S'64x32'
p179
F0.01
F0.01
F0.9
I3
tp180
g3
(g7
S'"\x82\x02A'
p181
tp182
Rp183
s(S'64x32'
p184
F0.01
F0.01
F0.9
I4
tp185
g3
(g7
S'\x81\x1b\x06A'
p186
tp187
Rp188
s(S'64x32'
p189
F0.01
F0.05
F0.8
I0
tp190
g3
(g7
S'\te\x14A'
p191
tp192
Rp193
s(S'64x32'
p194
F0.01
F0.01
F0.8
I4
tp195
g3
(g7
S'84\x05A'
p196
tp197
Rp198
s(S'64x32'
p199
F0.1
F0.01
F0.8
I1
tp200
g3
(g7
S'5\xda\x17A'
p201
tp202
Rp203
s(S'64x32'
p204
F0.1
F0.05
F0.9
I3
tp205
g3
(g7
S'\x1a]\x1bA'
p206
tp207
Rp208
s(S'64x32'
p209
F0.1
F0.05
F0.9
I4
tp210
g3
(g7
S'8e\x17A'
p211
tp212
Rp213
s.